; Function Attrs: mustprogress noinline uwtable
define hidden noundef ptr @_ZN6google8protobuf5Arena18CreateMaybeMessageIN17opencv_tensorflow35FunctionDef_Node_AttrEntry_DoNotUseEJEEEPT_PS1_DpOT0_(ptr noundef %0) local_unnamed_addr #16 align 2 personality ptr @__gxx_personality_v0 {
  %2 = icmp eq ptr %0, null
  br i1 %2, label %_ZN6google8protobuf5Arena14InternalHelperIN17opencv_tensorflow35FunctionDef_Node_AttrEntry_DoNotUseEE3NewEv.exit, label %5

_ZN6google8protobuf5Arena14InternalHelperIN17opencv_tensorflow35FunctionDef_Node_AttrEntry_DoNotUseEE3NewEv.exit: ; preds = %1
  %3 = tail call noalias noundef nonnull dereferenceable(48) ptr @_Znwm(i64 noundef 48) #32
  %4 = getelementptr inbounds nuw i8, ptr %3, i64 8
  store i64 0, ptr %4, align 8, !tbaa !3
  br label %_ZN6google8protobuf5Arena21CreateMessageInternalIN17opencv_tensorflow35FunctionDef_Node_AttrEntry_DoNotUseEEEPT_PS1_.exit

5:                                                ; preds = %1
  %6 = tail call noundef ptr @_ZN6google8protobuf5Arena23AllocateAlignedWithHookEmPKSt9type_info(ptr noundef nonnull align 8 dereferenceable(32) %0, i64 noundef 48, ptr noundef nonnull @_ZTIN17opencv_tensorflow35FunctionDef_Node_AttrEntry_DoNotUseE)
  %7 = getelementptr inbounds nuw i8, ptr %6, i64 8
  %8 = ptrtoint ptr %0 to i64
  store i64 %8, ptr %7, align 8, !tbaa !3
  br label %_ZN6google8protobuf5Arena21CreateMessageInternalIN17opencv_tensorflow35FunctionDef_Node_AttrEntry_DoNotUseEEEPT_PS1_.exit

_ZN6google8protobuf5Arena21CreateMessageInternalIN17opencv_tensorflow35FunctionDef_Node_AttrEntry_DoNotUseEEEPT_PS1_.exit: ; preds = %_ZN6google8protobuf5Arena14InternalHelperIN17opencv_tensorflow35FunctionDef_Node_AttrEntry_DoNotUseEE3NewEv.exit, %5
  %.sink9 = phi ptr [ %3, %_ZN6google8protobuf5Arena14InternalHelperIN17opencv_tensorflow35FunctionDef_Node_AttrEntry_DoNotUseEE3NewEv.exit ], [ %6, %5 ]
  %.sink2 = phi i64 [ 0, %_ZN6google8protobuf5Arena14InternalHelperIN17opencv_tensorflow35FunctionDef_Node_AttrEntry_DoNotUseEE3NewEv.exit ], [ %8, %5 ]
  %9 = getelementptr inbounds nuw i8, ptr %.sink9, i64 16
  store ptr @_ZN6google8protobuf8internal26fixed_address_empty_stringB5cxx11E, ptr %9, align 8
  %10 = getelementptr inbounds nuw i8, ptr %.sink9, i64 24
  store ptr null, ptr %10, align 8, !tbaa !72
  %.ptr.i.i.i = getelementptr inbounds nuw i8, ptr %.sink9, i64 32
  store i32 0, ptr %.ptr.i.i.i, align 4, !tbaa !61
  %11 = getelementptr inbounds nuw i8, ptr %.sink9, i64 40
  store i64 %.sink2, ptr %11, align 8, !tbaa !3
  store ptr getelementptr inbounds nuw inrange(-16, 168) (i8, ptr @_ZTVN17opencv_tensorflow35FunctionDef_Node_AttrEntry_DoNotUseE, i64 16), ptr %.sink9, align 8, !tbaa !8
  ret ptr %.sink9
}